; Function Attrs: nounwind uwtable
define internal i32 @test_MSG_protect_certificate_based_without_cert() #0 {
  %1 = tail call fastcc ptr @set_up(ptr noundef nonnull @.str.49)
  %2 = icmp eq ptr %1, null
  br i1 %2, label %51, label %3

3:                                                ; preds = %0
  %4 = getelementptr inbounds nuw i8, ptr %1, i64 8
  %5 = load ptr, ptr %4, align 8, !tbaa !36
  %6 = getelementptr inbounds nuw i8, ptr %1, i64 88
  store i32 0, ptr %6, align 8, !tbaa !43
  %7 = load ptr, ptr @ir_unprotected, align 8, !tbaa !9
  %8 = tail call ptr @OSSL_CMP_MSG_dup(ptr noundef %7) #5
  %9 = getelementptr inbounds nuw i8, ptr %1, i64 16
  store ptr %8, ptr %9, align 8, !tbaa !19
  %10 = tail call i32 @test_ptr(ptr noundef nonnull @.str.14, i32 noundef 263, ptr noundef nonnull @.str.75, ptr noundef %8) #5
  %.not = icmp eq i32 %10, 0
  br i1 %.not, label %.thread, label %11

11:                                               ; preds = %3
  %12 = tail call i32 @OSSL_CMP_CTX_set_option(ptr noundef %5, i32 noundef 30, i32 noundef 0) #5
  %13 = icmp ne i32 %12, 0
  %14 = zext i1 %13 to i32
  %15 = tail call i32 @test_true(ptr noundef nonnull @.str.14, i32 noundef 264, ptr noundef nonnull @.str.83, i32 noundef %14) #5
  %.not14 = icmp eq i32 %15, 0
  br i1 %.not14, label %.thread, label %16

16:                                               ; preds = %11
  %17 = load ptr, ptr @server_key, align 8, !tbaa !4
  %18 = tail call i32 @OSSL_CMP_CTX_set0_newPkey(ptr noundef %5, i32 noundef 1, ptr noundef %17) #5
  %19 = icmp ne i32 %18, 0
  %20 = zext i1 %19 to i32
  %21 = tail call i32 @test_true(ptr noundef nonnull @.str.14, i32 noundef 265, ptr noundef nonnull @.str.84, i32 noundef %20) #5
  %.not15 = icmp eq i32 %21, 0
  br i1 %.not15, label %.thread, label %tear_down.exit18

.thread:                                          ; preds = %3, %11, %16
  %22 = load ptr, ptr %4, align 8, !tbaa !36
  tail call void @OSSL_CMP_CTX_free(ptr noundef %22) #5
  %23 = load ptr, ptr %9, align 8, !tbaa !19
  tail call void @OSSL_CMP_MSG_free(ptr noundef %23) #5
  %24 = getelementptr inbounds nuw i8, ptr %1, i64 24
  %25 = load ptr, ptr %24, align 8, !tbaa !37
  tail call void @OSSL_CMP_PKISI_free(ptr noundef %25) #5
  %26 = getelementptr inbounds nuw i8, ptr %1, i64 40
  %27 = load ptr, ptr %26, align 8, !tbaa !38
  tail call void @CRYPTO_free(ptr noundef %27, ptr noundef nonnull @.str.14, i32 noundef 46) #5
  %28 = getelementptr inbounds nuw i8, ptr %1, i64 64
  %29 = load ptr, ptr %28, align 8, !tbaa !39
  tail call void @OPENSSL_sk_free(ptr noundef %29) #5
  %30 = getelementptr inbounds nuw i8, ptr %1, i64 72
  %31 = load ptr, ptr %30, align 8, !tbaa !40
  tail call void @OPENSSL_sk_free(ptr noundef %31) #5
  tail call void @CRYPTO_free(ptr noundef nonnull %1, ptr noundef nonnull @.str.14, i32 noundef 50) #5
  %32 = load ptr, ptr @server_key, align 8, !tbaa !4
  %33 = tail call i32 @EVP_PKEY_up_ref(ptr noundef %32) #5
  br label %51

tear_down.exit18:                                 ; preds = %16
  %34 = load ptr, ptr @server_key, align 8, !tbaa !4
  %35 = tail call i32 @EVP_PKEY_up_ref(ptr noundef %34) #5
  %36 = load i32, ptr %6, align 8, !tbaa !43
  %37 = load ptr, ptr %4, align 8, !tbaa !36
  %38 = load ptr, ptr %9, align 8, !tbaa !19
  %39 = tail call i32 @ossl_cmp_msg_protect(ptr noundef %37, ptr noundef %38) #5
  %40 = tail call i32 @test_int_eq(ptr noundef nonnull @.str.14, i32 noundef 193, ptr noundef nonnull @.str.79, ptr noundef nonnull @.str.80, i32 noundef %36, i32 noundef %39) #5
  %41 = load ptr, ptr %4, align 8, !tbaa !36
  tail call void @OSSL_CMP_CTX_free(ptr noundef %41) #5
  %42 = load ptr, ptr %9, align 8, !tbaa !19
  tail call void @OSSL_CMP_MSG_free(ptr noundef %42) #5
  %43 = getelementptr inbounds nuw i8, ptr %1, i64 24
  %44 = load ptr, ptr %43, align 8, !tbaa !37
  tail call void @OSSL_CMP_PKISI_free(ptr noundef %44) #5
  %45 = getelementptr inbounds nuw i8, ptr %1, i64 40
  %46 = load ptr, ptr %45, align 8, !tbaa !38
  tail call void @CRYPTO_free(ptr noundef %46, ptr noundef nonnull @.str.14, i32 noundef 46) #5
  %47 = getelementptr inbounds nuw i8, ptr %1, i64 64
  %48 = load ptr, ptr %47, align 8, !tbaa !39
  tail call void @OPENSSL_sk_free(ptr noundef %48) #5
  %49 = getelementptr inbounds nuw i8, ptr %1, i64 72
  %50 = load ptr, ptr %49, align 8, !tbaa !40
  tail call void @OPENSSL_sk_free(ptr noundef %50) #5
  tail call void @CRYPTO_free(ptr noundef nonnull %1, ptr noundef nonnull @.str.14, i32 noundef 50) #5
  br label %51

51:                                               ; preds = %.thread, %tear_down.exit18, %0
  %.012 = phi i32 [ 0, %0 ], [ %40, %tear_down.exit18 ], [ 0, %.thread ]
  ret i32 %.012
}